target datalayout = "e-m:e-p270:32:32-p271:32:32-p272:64:64-i64:64-i128:128-f80:128-n8:16:32:64-S128"
target triple = "x86_64-pc-linux-gnu"

; Function Attrs: nounwind uwtable
define internal ptr @BZ2_Malloc(ptr noundef %0, i32 noundef %1, i32 noundef %2) #0 {
  %4 = alloca ptr, align 8
  %5 = alloca ptr, align 8
  %6 = alloca i32, align 4
  %7 = alloca i32, align 4
  store ptr %0, ptr %5, align 8, !tbaa !8
  store i32 %1, ptr %6, align 4, !tbaa !12
  store i32 %2, ptr %7, align 4, !tbaa !12
  %8 = load i32, ptr %6, align 4, !tbaa !12
  %9 = icmp slt i32 %8, 0
  br i1 %9, label %13, label %10

10:                                               ; preds = %3
  %11 = load i32, ptr %7, align 4, !tbaa !12
  %12 = icmp slt i32 %11, 0
  br i1 %12, label %13, label %14

13:                                               ; preds = %10, %3
  store ptr null, ptr %4, align 8
  br label %32

14:                                               ; preds = %10
  %15 = load i32, ptr %7, align 4, !tbaa !12
  %16 = icmp ne i32 %15, 0
  br i1 %16, label %17, label %25

17:                                               ; preds = %14
  %18 = load i32, ptr %6, align 4, !tbaa !12
  %19 = sext i32 %18 to i64
  %20 = load i32, ptr %7, align 4, !tbaa !12
  %21 = sext i32 %20 to i64
  %22 = udiv i64 9223372036854775807, %21
  %23 = icmp ugt i64 %19, %22
  br i1 %23, label %24, label %25

24:                                               ; preds = %17
  store ptr null, ptr %4, align 8
  br label %32

25:                                               ; preds = %17, %14
  %26 = load i32, ptr %6, align 4, !tbaa !12
  %27 = sext i32 %26 to i64
  %28 = load i32, ptr %7, align 4, !tbaa !12
  %29 = sext i32 %28 to i64
  %30 = mul i64 %27, %29
  %31 = call ptr @PyMem_RawMalloc(i64 noundef %30)
  store ptr %31, ptr %4, align 8
  br label %32

32:                                               ; preds = %25, %24, %13
  %33 = load ptr, ptr %4, align 8
  ret ptr %33
}