; Function Attrs: nounwind uwtable
define internal ptr @BZ2_Malloc(ptr readnone captures(none) %0, i32 noundef %1, i32 noundef %2) #0 {
  %4 = or i32 %2, %1
  %or.cond.not = icmp sgt i32 %4, -1
  br i1 %or.cond.not, label %5, label %10

5:                                                ; preds = %3
  %6 = zext nneg i32 %1 to i64
  %7 = zext nneg i32 %2 to i64
  %8 = mul nuw nsw i64 %7, %6
  %9 = tail call ptr @PyMem_RawMalloc(i64 noundef %8) #7
  br label %10

10:                                               ; preds = %3, %5
  %.0 = phi ptr [ %9, %5 ], [ null, %3 ]
  ret ptr %.0
}